; Function Attrs: mustprogress nounwind uwtable
define dso_local noundef float @_ZN4llvm13LiveIntervals14getSpillWeightEbbPKNS_25MachineBlockFrequencyInfoERKNS_12MachineInstrE(i1 noundef zeroext %0, i1 noundef zeroext %1, ptr noundef nonnull %2, ptr nocapture noundef nonnull readonly align 8 dereferenceable(70) %3) local_unnamed_addr #0 align 2 {
  %5 = getelementptr inbounds nuw i8, ptr %3, i64 24
  %6 = load ptr, ptr %5, align 8
  %7 = zext i1 %0 to i32
  %8 = zext i1 %1 to i32
  %9 = add nuw nsw i32 %8, %7
  %10 = uitofp nneg i32 %9 to double
  %11 = tail call i64 @_ZNK4llvm25MachineBlockFrequencyInfo12getBlockFreqEPKNS_17MachineBasicBlockE(ptr noundef nonnull align 8 dereferenceable(8) %2, ptr noundef %6) #16
  %12 = uitofp i64 %11 to double
  %13 = tail call i64 @_ZNK4llvm25MachineBlockFrequencyInfo12getEntryFreqEv(ptr noundef nonnull align 8 dereferenceable(8) %2) #16
  %14 = uitofp i64 %13 to double
  %15 = fdiv double %12, %14
  %16 = fmul double %15, %10
  %17 = fptrunc double %16 to float
  ret float %17
}